; Function Attrs: inlinehint nounwind uwtable
define hidden ptr @_mi_page_malloc_zero(ptr noundef %0, ptr noundef captures(none) %1, i64 noundef %2, i1 noundef zeroext %3) local_unnamed_addr #0 {
  %5 = getelementptr inbounds nuw i8, ptr %1, i64 8
  %6 = load ptr, ptr %5, align 8, !tbaa !11
  %7 = icmp eq ptr %6, null
  br i1 %7, label %8, label %10, !prof !17

8:                                                ; preds = %4
  %9 = tail call noalias ptr @_mi_malloc_generic(ptr noundef %0, i64 noundef %2, i1 noundef zeroext %3, i64 noundef 0) #19
  br label %23

10:                                               ; preds = %4
  %.val = load i64, ptr %6, align 8, !tbaa !18
  %11 = inttoptr i64 %.val to ptr
  store ptr %11, ptr %5, align 8, !tbaa !11
  %12 = getelementptr inbounds nuw i8, ptr %1, i64 24
  %13 = load i16, ptr %12, align 8, !tbaa !20
  %14 = add i16 %13, 1
  store i16 %14, ptr %12, align 8, !tbaa !20
  br i1 %3, label %15, label %23, !prof !17

15:                                               ; preds = %10
  %16 = getelementptr inbounds nuw i8, ptr %1, i64 7
  %17 = load i8, ptr %16, align 1
  %18 = and i8 %17, 1
  %.not = icmp eq i8 %18, 0
  br i1 %.not, label %20, label %19

19:                                               ; preds = %15
  store i64 0, ptr %6, align 8, !tbaa !18
  br label %23

20:                                               ; preds = %15
  %21 = getelementptr inbounds nuw i8, ptr %1, i64 32
  %22 = load i64, ptr %21, align 8, !tbaa !21
  call void @llvm.assume(i1 true) [ "align"(ptr %6, i64 8) ]
  tail call void @llvm.memset.p0.i64(ptr nonnull align 8 %6, i8 0, i64 %22, i1 false)
  br label %23

23:                                               ; preds = %10, %20, %19, %8
  %.0 = phi ptr [ %9, %8 ], [ %6, %19 ], [ %6, %20 ], [ %6, %10 ]
  ret ptr %.0
}